target datalayout = "e-m:e-p270:32:32-p271:32:32-p272:64:64-i64:64-i128:128-f80:128-n8:16:32:64-S128"
target triple = "x86_64-pc-linux-gnu"

@.str.92 = private unnamed_addr constant [17 x i8] c"ui/hide_tooltips\00", align 1
@.str.93 = private unnamed_addr constant [9 x i8] c"plugins/\00", align 1
@.str.94 = private unnamed_addr constant [9 x i8] c"_visible\00", align 1
@.str.95 = private unnamed_addr constant [10 x i8] c"_position\00", align 1
@.str.96 = private unnamed_addr constant [5 x i8] c"/ui/\00", align 1
@.str.97 = private unnamed_addr constant [12 x i8] c"border_size\00", align 1
@.str.98 = private unnamed_addr constant [6 x i8] c"_size\00", align 1
@.str.99 = private unnamed_addr constant [20 x i8] c"panel_collaps_state\00", align 1
@.str.100 = private unnamed_addr constant [25 x i8] c"panels_collapse_controls\00", align 1

; Function Attrs: nounwind uwtable
define internal i32 @_remove_panel_config(ptr noundef %0, ptr noundef %1, ptr noundef %2) #0 {
  %4 = alloca ptr, align 8
  %5 = alloca ptr, align 8
  %6 = alloca ptr, align 8
  store ptr %0, ptr %4, align 8, !tbaa !61
  store ptr %1, ptr %5, align 8, !tbaa !61
  store ptr %2, ptr %6, align 8, !tbaa !61
  %7 = load ptr, ptr %4, align 8, !tbaa !61
  %8 = call i32 @strcmp(ptr noundef %7, ptr noundef @.str.92) #12
  %9 = icmp ne i32 %8, 0
  br i1 %9, label %10, label %50

10:                                               ; preds = %3
  %11 = load ptr, ptr %4, align 8, !tbaa !61
  %12 = call i32 @g_str_has_prefix(ptr noundef %11, ptr noundef @.str.93)
  %13 = icmp ne i32 %12, 0
  br i1 %13, label %14, label %22

14:                                               ; preds = %10
  %15 = load ptr, ptr %4, align 8, !tbaa !61
  %16 = call i32 @g_str_has_suffix(ptr noundef %15, ptr noundef @.str.94)
  %17 = icmp ne i32 %16, 0
  br i1 %17, label %50, label %18

18:                                               ; preds = %14
  %19 = load ptr, ptr %4, align 8, !tbaa !61
  %20 = call i32 @g_str_has_suffix(ptr noundef %19, ptr noundef @.str.95)
  %21 = icmp ne i32 %20, 0
  br i1 %21, label %50, label %22

22:                                               ; preds = %18, %10
  %23 = load ptr, ptr %4, align 8, !tbaa !61
  %24 = call ptr @strstr(ptr noundef %23, ptr noundef @.str.96) #12
  %25 = icmp ne ptr %24, null
  br i1 %25, label %26, label %48

26:                                               ; preds = %22
  %27 = load ptr, ptr %4, align 8, !tbaa !61
  %28 = call i32 @g_str_has_suffix(ptr noundef %27, ptr noundef @.str.97)
  %29 = icmp ne i32 %28, 0
  br i1 %29, label %48, label %30

30:                                               ; preds = %26
  %31 = load ptr, ptr %4, align 8, !tbaa !61
  %32 = call i32 @g_str_has_suffix(ptr noundef %31, ptr noundef @.str.94)
  %33 = icmp ne i32 %32, 0
  br i1 %33, label %46, label %34

34:                                               ; preds = %30
  %35 = load ptr, ptr %4, align 8, !tbaa !61
  %36 = call i32 @g_str_has_suffix(ptr noundef %35, ptr noundef @.str.98)
  %37 = icmp ne i32 %36, 0
  br i1 %37, label %46, label %38

38:                                               ; preds = %34
  %39 = load ptr, ptr %4, align 8, !tbaa !61
  %40 = call i32 @g_str_has_suffix(ptr noundef %39, ptr noundef @.str.99)
  %41 = icmp ne i32 %40, 0
  br i1 %41, label %46, label %42

42:                                               ; preds = %38
  %43 = load ptr, ptr %4, align 8, !tbaa !61
  %44 = call i32 @g_str_has_suffix(ptr noundef %43, ptr noundef @.str.100)
  %45 = icmp ne i32 %44, 0
  br label %46

46:                                               ; preds = %42, %38, %34, %30
  %47 = phi i1 [ true, %38 ], [ true, %34 ], [ true, %30 ], [ %45, %42 ]
  br label %48

48:                                               ; preds = %46, %26, %22
  %49 = phi i1 [ false, %26 ], [ false, %22 ], [ %47, %46 ]
  br label %50

50:                                               ; preds = %48, %18, %14, %3
  %51 = phi i1 [ true, %18 ], [ true, %14 ], [ true, %3 ], [ %49, %48 ]
  %52 = zext i1 %51 to i32
  ret i32 %52
}