; Function Attrs: nounwind uwtable
define internal range(i32 0, 2) i32 @_remove_panel_config(ptr noundef %0, ptr readnone captures(none) %1, ptr readnone captures(none) %2) #0 {
  %4 = tail call i32 @strcmp(ptr noundef nonnull dereferenceable(1) %0, ptr noundef nonnull dereferenceable(17) @.str.92) #14
  %.not = icmp eq i32 %4, 0
  br i1 %.not, label %25, label %5

5:                                                ; preds = %3
  %6 = tail call i32 @g_str_has_prefix(ptr noundef nonnull %0, ptr noundef nonnull @.str.93) #12
  %.not10 = icmp eq i32 %6, 0
  br i1 %.not10, label %11, label %7

7:                                                ; preds = %5
  %8 = tail call i32 @g_str_has_suffix(ptr noundef nonnull %0, ptr noundef nonnull @.str.94) #12
  %.not11 = icmp eq i32 %8, 0
  br i1 %.not11, label %9, label %25

9:                                                ; preds = %7
  %10 = tail call i32 @g_str_has_suffix(ptr noundef nonnull %0, ptr noundef nonnull @.str.95) #12
  %.not12 = icmp eq i32 %10, 0
  br i1 %.not12, label %11, label %25

11:                                               ; preds = %9, %5
  %12 = tail call ptr @strstr(ptr noundef nonnull dereferenceable(1) %0, ptr noundef nonnull dereferenceable(1) @.str.96) #14
  %.not13 = icmp eq ptr %12, null
  br i1 %.not13, label %25, label %13

13:                                               ; preds = %11
  %14 = tail call i32 @g_str_has_suffix(ptr noundef nonnull %0, ptr noundef nonnull @.str.97) #12
  %.not14 = icmp eq i32 %14, 0
  br i1 %.not14, label %15, label %25

15:                                               ; preds = %13
  %16 = tail call i32 @g_str_has_suffix(ptr noundef nonnull %0, ptr noundef nonnull @.str.94) #12
  %.not15 = icmp eq i32 %16, 0
  br i1 %.not15, label %17, label %25

17:                                               ; preds = %15
  %18 = tail call i32 @g_str_has_suffix(ptr noundef nonnull %0, ptr noundef nonnull @.str.98) #12
  %.not16 = icmp eq i32 %18, 0
  br i1 %.not16, label %19, label %25

19:                                               ; preds = %17
  %20 = tail call i32 @g_str_has_suffix(ptr noundef nonnull %0, ptr noundef nonnull @.str.99) #12
  %.not17 = icmp eq i32 %20, 0
  br i1 %.not17, label %21, label %25

21:                                               ; preds = %19
  %22 = tail call i32 @g_str_has_suffix(ptr noundef nonnull %0, ptr noundef nonnull @.str.100) #12
  %23 = icmp ne i32 %22, 0
  %24 = zext i1 %23 to i32
  br label %25

25:                                               ; preds = %11, %13, %21, %19, %17, %15, %9, %7, %3
  %26 = phi i32 [ 1, %9 ], [ 1, %7 ], [ 1, %3 ], [ 0, %13 ], [ 0, %11 ], [ 1, %19 ], [ 1, %17 ], [ 1, %15 ], [ %24, %21 ]
  ret i32 %26
}